; Function Attrs: mustprogress uwtable
define void @_ZN5Yosys12define_map_t3addERKNSt7__cxx1112basic_stringIcSt11char_traitsIcESaIcEEES8_PKNS_9arg_map_tE(ptr noundef nonnull align 8 dereferenceable(48) %0, ptr noundef nonnull align 8 dereferenceable(32) %1, ptr noundef nonnull align 8 dereferenceable(32) %2, ptr noundef %3) local_unnamed_addr #4 align 2 personality ptr @__gxx_personality_v0 {
  %5 = alloca %"class.std::unique_ptr", align 8
  call void @llvm.lifetime.start.p0(i64 8, ptr nonnull %5) #27
  %6 = tail call noalias noundef nonnull dereferenceable(112) ptr @_Znwm(i64 noundef 112) #28
  invoke void @_ZN5Yosys13define_body_tC2ERKNSt7__cxx1112basic_stringIcSt11char_traitsIcESaIcEEEPKNS_9arg_map_tE(ptr noundef nonnull align 8 dereferenceable(112) %6, ptr noundef nonnull align 8 dereferenceable(32) %2, ptr noundef %3)
          to label %7 unwind label %11

7:                                                ; preds = %4
  store ptr %6, ptr %5, align 8, !tbaa !31
  %8 = invoke noundef nonnull align 8 dereferenceable(8) ptr @_ZNSt3mapINSt7__cxx1112basic_stringIcSt11char_traitsIcESaIcEEESt10unique_ptrIN5Yosys13define_body_tESt14default_deleteIS8_EESt4lessIS5_ESaISt4pairIKS5_SB_EEEixERSF_(ptr noundef nonnull align 8 dereferenceable(48) %0, ptr noundef nonnull align 8 dereferenceable(32) %1)
          to label %9 unwind label %13

9:                                                ; preds = %7
  %10 = load ptr, ptr %8, align 8, !tbaa !31
  store ptr %6, ptr %8, align 8, !tbaa !31
  %.not.i.i.i.i = icmp eq ptr %10, null
  br i1 %.not.i.i.i.i, label %_ZNSt10unique_ptrIN5Yosys13define_body_tESt14default_deleteIS1_EED2Ev.exit, label %_ZNKSt14default_deleteIN5Yosys13define_body_tEEclEPS1_.exit.i.i.i.i

_ZNKSt14default_deleteIN5Yosys13define_body_tEEclEPS1_.exit.i.i.i.i: ; preds = %9
  tail call void @_ZN5Yosys13define_body_tD2Ev(ptr noundef nonnull align 8 dereferenceable(112) %10) #27
  tail call void @_ZdlPvm(ptr noundef nonnull %10, i64 noundef 112) #26
  br label %_ZNSt10unique_ptrIN5Yosys13define_body_tESt14default_deleteIS1_EED2Ev.exit

_ZNSt10unique_ptrIN5Yosys13define_body_tESt14default_deleteIS1_EED2Ev.exit: ; preds = %_ZNKSt14default_deleteIN5Yosys13define_body_tEEclEPS1_.exit.i.i.i.i, %9
  call void @llvm.lifetime.end.p0(i64 8, ptr nonnull %5) #27
  ret void

11:                                               ; preds = %4
  %12 = landingpad { ptr, i32 }
          cleanup
  tail call void @_ZdlPvm(ptr noundef nonnull %6, i64 noundef 112) #26
  br label %15

13:                                               ; preds = %7
  %14 = landingpad { ptr, i32 }
          cleanup
  call void @_ZNSt10unique_ptrIN5Yosys13define_body_tESt14default_deleteIS1_EED2Ev(ptr noundef nonnull align 8 dereferenceable(8) %5) #27
  br label %15

15:                                               ; preds = %13, %11
  %.pn = phi { ptr, i32 } [ %14, %13 ], [ %12, %11 ]
  call void @llvm.lifetime.end.p0(i64 8, ptr nonnull %5) #27
  resume { ptr, i32 } %.pn
}